; Function Attrs: nounwind uwtable
define ptr @l_Lean_Meta_Grind_propagateBetaEqs(ptr noundef readonly captures(none) %0, ptr noundef %1, ptr noundef %2, ptr noundef %3, ptr noundef %4, ptr noundef %5, ptr noundef %6, ptr noundef %7, ptr noundef %8, ptr noundef %9, ptr noundef %10, ptr noundef %11) local_unnamed_addr #0 {
  %13 = tail call zeroext i8 @l_Array_isEmpty___rarg(ptr noundef %2) #5
  %14 = icmp eq i8 %13, 0
  br i1 %14, label %15, label %17

15:                                               ; preds = %12
  %16 = tail call ptr @l_Lean_Meta_Grind_propagateBetaEqs___lambda__1(ptr noundef %0, ptr noundef %1, ptr noundef %2, ptr nonnull poison, ptr noundef %3, ptr noundef %4, ptr noundef %5, ptr noundef %6, ptr noundef %7, ptr noundef %8, ptr noundef %9, ptr noundef %10, ptr noundef %11)
  br label %114

17:                                               ; preds = %12
  %18 = ptrtoint ptr %10 to i64
  %19 = and i64 %18, 1
  %.not = icmp eq i64 %19, 0
  br i1 %.not, label %20, label %lean_dec.exit39

20:                                               ; preds = %17
  %21 = load i32, ptr %10, align 4, !tbaa !8
  %22 = icmp sgt i32 %21, 1
  br i1 %22, label %23, label %25, !prof !11

23:                                               ; preds = %20
  %24 = add nsw i32 %21, -1
  store i32 %24, ptr %10, align 4, !tbaa !8
  br label %lean_dec.exit39

25:                                               ; preds = %20
  %.not.i = icmp eq i32 %21, 0
  br i1 %.not.i, label %lean_dec.exit39, label %26

26:                                               ; preds = %25
  tail call void @lean_dec_ref_cold(ptr noundef nonnull %10) #5
  br label %lean_dec.exit39

lean_dec.exit39:                                  ; preds = %26, %25, %23, %17
  %27 = ptrtoint ptr %9 to i64
  %28 = and i64 %27, 1
  %.not58 = icmp eq i64 %28, 0
  br i1 %.not58, label %29, label %lean_dec.exit38

29:                                               ; preds = %lean_dec.exit39
  %30 = load i32, ptr %9, align 4, !tbaa !8
  %31 = icmp sgt i32 %30, 1
  br i1 %31, label %32, label %34, !prof !11

32:                                               ; preds = %29
  %33 = add nsw i32 %30, -1
  store i32 %33, ptr %9, align 4, !tbaa !8
  br label %lean_dec.exit38

34:                                               ; preds = %29
  %.not.i40 = icmp eq i32 %30, 0
  br i1 %.not.i40, label %lean_dec.exit38, label %35

35:                                               ; preds = %34
  tail call void @lean_dec_ref_cold(ptr noundef nonnull %9) #5
  br label %lean_dec.exit38

lean_dec.exit38:                                  ; preds = %35, %34, %32, %lean_dec.exit39
  %36 = ptrtoint ptr %8 to i64
  %37 = and i64 %36, 1
  %.not59 = icmp eq i64 %37, 0
  br i1 %.not59, label %38, label %lean_dec.exit37

38:                                               ; preds = %lean_dec.exit38
  %39 = load i32, ptr %8, align 4, !tbaa !8
  %40 = icmp sgt i32 %39, 1
  br i1 %40, label %41, label %43, !prof !11

41:                                               ; preds = %38
  %42 = add nsw i32 %39, -1
  store i32 %42, ptr %8, align 4, !tbaa !8
  br label %lean_dec.exit37

43:                                               ; preds = %38
  %.not.i42 = icmp eq i32 %39, 0
  br i1 %.not.i42, label %lean_dec.exit37, label %44

44:                                               ; preds = %43
  tail call void @lean_dec_ref_cold(ptr noundef nonnull %8) #5
  br label %lean_dec.exit37

lean_dec.exit37:                                  ; preds = %44, %43, %41, %lean_dec.exit38
  %45 = ptrtoint ptr %7 to i64
  %46 = and i64 %45, 1
  %.not60 = icmp eq i64 %46, 0
  br i1 %.not60, label %47, label %lean_dec.exit36

47:                                               ; preds = %lean_dec.exit37
  %48 = load i32, ptr %7, align 4, !tbaa !8
  %49 = icmp sgt i32 %48, 1
  br i1 %49, label %50, label %52, !prof !11

50:                                               ; preds = %47
  %51 = add nsw i32 %48, -1
  store i32 %51, ptr %7, align 4, !tbaa !8
  br label %lean_dec.exit36

52:                                               ; preds = %47
  %.not.i44 = icmp eq i32 %48, 0
  br i1 %.not.i44, label %lean_dec.exit36, label %53

53:                                               ; preds = %52
  tail call void @lean_dec_ref_cold(ptr noundef nonnull %7) #5
  br label %lean_dec.exit36

lean_dec.exit36:                                  ; preds = %53, %52, %50, %lean_dec.exit37
  %54 = ptrtoint ptr %6 to i64
  %55 = and i64 %54, 1
  %.not61 = icmp eq i64 %55, 0
  br i1 %.not61, label %56, label %lean_dec.exit35

56:                                               ; preds = %lean_dec.exit36
  %57 = load i32, ptr %6, align 4, !tbaa !8
  %58 = icmp sgt i32 %57, 1
  br i1 %58, label %59, label %61, !prof !11

59:                                               ; preds = %56
  %60 = add nsw i32 %57, -1
  store i32 %60, ptr %6, align 4, !tbaa !8
  br label %lean_dec.exit35

61:                                               ; preds = %56
  %.not.i46 = icmp eq i32 %57, 0
  br i1 %.not.i46, label %lean_dec.exit35, label %62

62:                                               ; preds = %61
  tail call void @lean_dec_ref_cold(ptr noundef nonnull %6) #5
  br label %lean_dec.exit35

lean_dec.exit35:                                  ; preds = %62, %61, %59, %lean_dec.exit36
  %63 = ptrtoint ptr %5 to i64
  %64 = and i64 %63, 1
  %.not62 = icmp eq i64 %64, 0
  br i1 %.not62, label %65, label %lean_dec.exit34

65:                                               ; preds = %lean_dec.exit35
  %66 = load i32, ptr %5, align 4, !tbaa !8
  %67 = icmp sgt i32 %66, 1
  br i1 %67, label %68, label %70, !prof !11

68:                                               ; preds = %65
  %69 = add nsw i32 %66, -1
  store i32 %69, ptr %5, align 4, !tbaa !8
  br label %lean_dec.exit34

70:                                               ; preds = %65
  %.not.i48 = icmp eq i32 %66, 0
  br i1 %.not.i48, label %lean_dec.exit34, label %71

71:                                               ; preds = %70
  tail call void @lean_dec_ref_cold(ptr noundef nonnull %5) #5
  br label %lean_dec.exit34

lean_dec.exit34:                                  ; preds = %71, %70, %68, %lean_dec.exit35
  %72 = ptrtoint ptr %4 to i64
  %73 = and i64 %72, 1
  %.not63 = icmp eq i64 %73, 0
  br i1 %.not63, label %74, label %lean_dec.exit33

74:                                               ; preds = %lean_dec.exit34
  %75 = load i32, ptr %4, align 4, !tbaa !8
  %76 = icmp sgt i32 %75, 1
  br i1 %76, label %77, label %79, !prof !11

77:                                               ; preds = %74
  %78 = add nsw i32 %75, -1
  store i32 %78, ptr %4, align 4, !tbaa !8
  br label %lean_dec.exit33

79:                                               ; preds = %74
  %.not.i50 = icmp eq i32 %75, 0
  br i1 %.not.i50, label %lean_dec.exit33, label %80

80:                                               ; preds = %79
  tail call void @lean_dec_ref_cold(ptr noundef nonnull %4) #5
  br label %lean_dec.exit33

lean_dec.exit33:                                  ; preds = %80, %79, %77, %lean_dec.exit34
  %81 = ptrtoint ptr %3 to i64
  %82 = and i64 %81, 1
  %.not64 = icmp eq i64 %82, 0
  br i1 %.not64, label %83, label %lean_dec.exit32

83:                                               ; preds = %lean_dec.exit33
  %84 = load i32, ptr %3, align 4, !tbaa !8
  %85 = icmp sgt i32 %84, 1
  br i1 %85, label %86, label %88, !prof !11

86:                                               ; preds = %83
  %87 = add nsw i32 %84, -1
  store i32 %87, ptr %3, align 4, !tbaa !8
  br label %lean_dec.exit32

88:                                               ; preds = %83
  %.not.i52 = icmp eq i32 %84, 0
  br i1 %.not.i52, label %lean_dec.exit32, label %89

89:                                               ; preds = %88
  tail call void @lean_dec_ref_cold(ptr noundef nonnull %3) #5
  br label %lean_dec.exit32

lean_dec.exit32:                                  ; preds = %89, %88, %86, %lean_dec.exit33
  %90 = ptrtoint ptr %2 to i64
  %91 = and i64 %90, 1
  %.not65 = icmp eq i64 %91, 0
  br i1 %.not65, label %92, label %lean_dec.exit31

92:                                               ; preds = %lean_dec.exit32
  %93 = load i32, ptr %2, align 4, !tbaa !8
  %94 = icmp sgt i32 %93, 1
  br i1 %94, label %95, label %97, !prof !11

95:                                               ; preds = %92
  %96 = add nsw i32 %93, -1
  store i32 %96, ptr %2, align 4, !tbaa !8
  br label %lean_dec.exit31

97:                                               ; preds = %92
  %.not.i54 = icmp eq i32 %93, 0
  br i1 %.not.i54, label %lean_dec.exit31, label %98

98:                                               ; preds = %97
  tail call void @lean_dec_ref_cold(ptr noundef nonnull %2) #5
  br label %lean_dec.exit31

lean_dec.exit31:                                  ; preds = %98, %97, %95, %lean_dec.exit32
  %99 = ptrtoint ptr %1 to i64
  %100 = and i64 %99, 1
  %.not66 = icmp eq i64 %100, 0
  br i1 %.not66, label %101, label %lean_dec.exit

101:                                              ; preds = %lean_dec.exit31
  %102 = load i32, ptr %1, align 4, !tbaa !8
  %103 = icmp sgt i32 %102, 1
  br i1 %103, label %104, label %106, !prof !11

104:                                              ; preds = %101
  %105 = add nsw i32 %102, -1
  store i32 %105, ptr %1, align 4, !tbaa !8
  br label %lean_dec.exit

106:                                              ; preds = %101
  %.not.i56 = icmp eq i32 %102, 0
  br i1 %.not.i56, label %lean_dec.exit, label %107

107:                                              ; preds = %106
  tail call void @lean_dec_ref_cold(ptr noundef nonnull %1) #5
  br label %lean_dec.exit

lean_dec.exit:                                    ; preds = %107, %106, %104, %lean_dec.exit31
  tail call void @lean_inc_heartbeat() #5
  %108 = tail call noalias ptr @mi_malloc_small(i64 noundef 24) #5
  %109 = icmp eq ptr %108, null
  br i1 %109, label %110, label %lean_alloc_ctor.exit

110:                                              ; preds = %lean_dec.exit
  tail call void @lean_internal_panic_out_of_memory() #6
  unreachable

lean_alloc_ctor.exit:                             ; preds = %lean_dec.exit
  %111 = getelementptr inbounds nuw i8, ptr %108, i64 4
  store i32 1, ptr %108, align 4, !tbaa !8
  store i32 131096, ptr %111, align 4
  %112 = getelementptr inbounds nuw i8, ptr %108, i64 8
  store ptr inttoptr (i64 1 to ptr), ptr %112, align 8, !tbaa !4
  %113 = getelementptr inbounds nuw i8, ptr %108, i64 16
  store ptr %11, ptr %113, align 8, !tbaa !4
  br label %114

114:                                              ; preds = %lean_alloc_ctor.exit, %15
  %.0 = phi ptr [ %16, %15 ], [ %108, %lean_alloc_ctor.exit ]
  ret ptr %.0
}